target datalayout = "e-m:e-p270:32:32-p271:32:32-p272:64:64-i64:64-i128:128-f80:128-n8:16:32:64-S128"
target triple = "x86_64-pc-linux-gnu"

%struct.ImVec2 = type { float, float }
%struct.ImFontConfig = type { ptr, i32, i8, i8, i8, i32, i32, i32, float, %struct.ImVec2, ptr, float, float, float, i32, float, float, i16, [40 x i8], ptr }

; Function Attrs: mustprogress nounwind uwtable
define void @_Z36ImFontAtlasBuildGetOversampleFactorsPK12ImFontConfigPiS2_(ptr noundef %0, ptr noundef %1, ptr noundef %2) #3 {
  %4 = alloca ptr, align 8
  %5 = alloca ptr, align 8
  %6 = alloca ptr, align 8
  store ptr %0, ptr %4, align 8, !tbaa !289
  store ptr %1, ptr %5, align 8, !tbaa !244
  store ptr %2, ptr %6, align 8, !tbaa !244
  %7 = load ptr, ptr %4, align 8, !tbaa !289
  %8 = getelementptr inbounds nuw %struct.ImFontConfig, ptr %7, i32 0, i32 6
  %9 = load i32, ptr %8, align 4, !tbaa !292
  %10 = icmp ne i32 %9, 0
  br i1 %10, label %11, label %15

11:                                               ; preds = %3
  %12 = load ptr, ptr %4, align 8, !tbaa !289
  %13 = getelementptr inbounds nuw %struct.ImFontConfig, ptr %12, i32 0, i32 6
  %14 = load i32, ptr %13, align 4, !tbaa !292
  br label %32

15:                                               ; preds = %3
  %16 = load ptr, ptr %4, align 8, !tbaa !289
  %17 = getelementptr inbounds nuw %struct.ImFontConfig, ptr %16, i32 0, i32 8
  %18 = load float, ptr %17, align 4, !tbaa !347
  %19 = load ptr, ptr %4, align 8, !tbaa !289
  %20 = getelementptr inbounds nuw %struct.ImFontConfig, ptr %19, i32 0, i32 16
  %21 = load float, ptr %20, align 4, !tbaa !296
  %22 = fmul float %18, %21
  %23 = fcmp ogt float %22, 3.600000e+01
  br i1 %23, label %29, label %24

24:                                               ; preds = %15
  %25 = load ptr, ptr %4, align 8, !tbaa !289
  %26 = getelementptr inbounds nuw %struct.ImFontConfig, ptr %25, i32 0, i32 4
  %27 = load i8, ptr %26, align 2, !tbaa !349, !range !142, !noundef !143
  %28 = trunc i8 %27 to i1
  br label %29

29:                                               ; preds = %24, %15
  %30 = phi i1 [ true, %15 ], [ %28, %24 ]
  %31 = select i1 %30, i32 1, i32 2
  br label %32

32:                                               ; preds = %29, %11
  %33 = phi i32 [ %14, %11 ], [ %31, %29 ]
  %34 = load ptr, ptr %5, align 8, !tbaa !244
  store i32 %33, ptr %34, align 4, !tbaa !27
  %35 = load ptr, ptr %4, align 8, !tbaa !289
  %36 = getelementptr inbounds nuw %struct.ImFontConfig, ptr %35, i32 0, i32 7
  %37 = load i32, ptr %36, align 8, !tbaa !293
  %38 = icmp ne i32 %37, 0
  br i1 %38, label %39, label %43

39:                                               ; preds = %32
  %40 = load ptr, ptr %4, align 8, !tbaa !289
  %41 = getelementptr inbounds nuw %struct.ImFontConfig, ptr %40, i32 0, i32 7
  %42 = load i32, ptr %41, align 8, !tbaa !293
  br label %44

43:                                               ; preds = %32
  br label %44

44:                                               ; preds = %43, %39
  %45 = phi i32 [ %42, %39 ], [ 1, %43 ]
  %46 = load ptr, ptr %6, align 8, !tbaa !244
  store i32 %45, ptr %46, align 4, !tbaa !27
  ret void
}