; Function Attrs: mustprogress nofree norecurse nosync nounwind willreturn memory(argmem: readwrite) uwtable
define void @_Z36ImFontAtlasBuildGetOversampleFactorsPK12ImFontConfigPiS2_(ptr noundef readonly captures(none) %0, ptr noundef writeonly captures(none) initializes((0, 4)) %1, ptr noundef writeonly captures(none) initializes((0, 4)) %2) local_unnamed_addr #27 {
  %4 = getelementptr inbounds nuw i8, ptr %0, i64 20
  %5 = load i32, ptr %4, align 4, !tbaa !273
  %.not = icmp eq i32 %5, 0
  br i1 %.not, label %6, label %18

6:                                                ; preds = %3
  %7 = getelementptr inbounds nuw i8, ptr %0, i64 28
  %8 = load float, ptr %7, align 4, !tbaa !275
  %9 = getelementptr inbounds nuw i8, ptr %0, i64 68
  %10 = load float, ptr %9, align 4, !tbaa !240
  %11 = fmul float %8, %10
  %12 = fcmp ogt float %11, 3.600000e+01
  br i1 %12, label %18, label %13

13:                                               ; preds = %6
  %14 = getelementptr inbounds nuw i8, ptr %0, i64 14
  %15 = load i8, ptr %14, align 2, !tbaa !274, !range !265, !noundef !266
  %16 = trunc nuw i8 %15 to i1
  %17 = select i1 %16, i32 1, i32 2
  br label %18

18:                                               ; preds = %6, %13, %3
  %19 = phi i32 [ %5, %3 ], [ 1, %6 ], [ %17, %13 ]
  store i32 %19, ptr %1, align 4, !tbaa !19
  %20 = getelementptr inbounds nuw i8, ptr %0, i64 24
  %21 = load i32, ptr %20, align 8, !tbaa !237
  %spec.select = tail call i32 @llvm.umax.i32(i32 %21, i32 1)
  store i32 %spec.select, ptr %2, align 4, !tbaa !19
  ret void
}